; Function Attrs: mustprogress uwtable
define hidden void @_ZN4cvc58internal6theory11quantifiers22SynthConjectureProcessC2ERNS0_3EnvE(ptr noundef nonnull align 8 dereferenceable(64) %0, ptr noundef nonnull align 8 dereferenceable(696) %1) unnamed_addr #3 align 2 personality ptr @__gxx_personality_v0 {
  tail call void @_ZN4cvc58internal6EnvObjC2ERNS0_3EnvE(ptr noundef nonnull align 8 dereferenceable(16) %0, ptr noundef nonnull align 8 dereferenceable(696) %1)
  store ptr getelementptr inbounds nuw inrange(-16, 16) (i8, ptr @_ZTVN4cvc58internal6theory11quantifiers22SynthConjectureProcessE, i64 16), ptr %0, align 8, !tbaa !3
  %3 = getelementptr inbounds nuw i8, ptr %0, i64 24
  store i32 0, ptr %3, align 8, !tbaa !274
  %4 = getelementptr inbounds nuw i8, ptr %0, i64 32
  store ptr null, ptr %4, align 8, !tbaa !279
  %5 = getelementptr inbounds nuw i8, ptr %0, i64 40
  store ptr %3, ptr %5, align 8, !tbaa !280
  %6 = getelementptr inbounds nuw i8, ptr %0, i64 48
  store ptr %3, ptr %6, align 8, !tbaa !281
  %7 = getelementptr inbounds nuw i8, ptr %0, i64 56
  store i64 0, ptr %7, align 8, !tbaa !282
  ret void
}